target datalayout = "e-m:e-p270:32:32-p271:32:32-p272:64:64-i64:64-i128:128-f80:128-n8:16:32:64-S128"
target triple = "x86_64-pc-linux-gnu"

%"class.casadi::SerializingStream" = type <{ %"class.std::unordered_map", ptr, ptr, i8, [7 x i8] }>
%"class.std::unordered_map" = type { %"class.std::_Hashtable" }
%"class.std::_Hashtable" = type { ptr, i64, %"struct.std::__detail::_Hash_node_base", i64, %"struct.std::__detail::_Prime_rehash_policy", ptr }
%"struct.std::__detail::_Hash_node_base" = type { ptr }
%"struct.std::__detail::_Prime_rehash_policy" = type { float, i64 }
%"class.std::fpos" = type { i64, %struct.__mbstate_t }
%struct.__mbstate_t = type { i32, %union.anon.24 }
%union.anon.24 = type { i32 }

; Function Attrs: mustprogress nounwind uwtable
define linkonce_odr noundef i32 @_ZStanSt12_Ios_IostateS_(i32 noundef %0, i32 noundef %1) #5 comdat {
  %3 = alloca i32, align 4
  %4 = alloca i32, align 4
  store i32 %0, ptr %3, align 4
  store i32 %1, ptr %4, align 4
  %5 = load i32, ptr %3, align 4
  %6 = load i32, ptr %4, align 4
  %7 = and i32 %5, %6
  ret i32 %7
}

; Function Attrs: mustprogress uwtable
define void @_ZN6casadi17SerializingStream4packEc(ptr noundef nonnull align 8 dereferenceable(73) %0, i8 noundef signext %1) #4 align 2 {
  %3 = alloca ptr, align 8
  %4 = alloca i8, align 1
  %5 = alloca i8, align 1
  store ptr %0, ptr %3, align 8
  store i8 %1, ptr %4, align 1
  %6 = load ptr, ptr %3, align 8
  store i8 97, ptr %5, align 1
  %7 = getelementptr inbounds %"class.casadi::SerializingStream", ptr %6, i32 0, i32 2
  %8 = load ptr, ptr %7, align 8
  %9 = load i8, ptr %5, align 1
  %10 = zext i8 %9 to i32
  %11 = load i8, ptr %4, align 1
  %12 = zext i8 %11 to i32
  %13 = srem i32 %12, 16
  %14 = add nsw i32 %10, %13
  %15 = trunc i32 %14 to i8
  %16 = call noundef nonnull align 8 dereferenceable(8) ptr @_ZNSo3putEc(ptr noundef nonnull align 8 dereferenceable(8) %8, i8 noundef signext %15)
  %17 = getelementptr inbounds %"class.casadi::SerializingStream", ptr %6, i32 0, i32 2
  %18 = load ptr, ptr %17, align 8
  %19 = load i8, ptr %5, align 1
  %20 = zext i8 %19 to i32
  %21 = load i8, ptr %4, align 1
  %22 = zext i8 %21 to i32
  %23 = ashr i32 %22, 4
  %24 = add nsw i32 %20, %23
  %25 = trunc i32 %24 to i8
  %26 = call noundef nonnull align 8 dereferenceable(8) ptr @_ZNSo3putEc(ptr noundef nonnull align 8 dereferenceable(8) %18, i8 noundef signext %25)
  ret void
}

; Function Attrs: mustprogress uwtable
define void @_ZN6casadi17SerializingStream4packEm(ptr noundef nonnull align 8 dereferenceable(73) %0, i64 noundef %1) #4 align 2 {
  %3 = alloca ptr, align 8
  %4 = alloca i64, align 8
  %5 = alloca i64, align 8
  %6 = alloca ptr, align 8
  %7 = alloca i32, align 4
  store ptr %0, ptr %3, align 8
  store i64 %1, ptr %4, align 8
  %8 = load ptr, ptr %3, align 8
  call void @_ZN6casadi17SerializingStream8decorateEc(ptr noundef nonnull align 8 dereferenceable(73) %8, i8 noundef signext 75)
  %9 = load i64, ptr %4, align 8
  store i64 %9, ptr %5, align 8
  store ptr %5, ptr %6, align 8
  store i32 0, ptr %7, align 4
  br label %10

10:                                               ; preds = %19, %2
  %11 = load i32, ptr %7, align 4
  %12 = icmp slt i32 %11, 8
  br i1 %12, label %13, label %22

13:                                               ; preds = %10
  %14 = load ptr, ptr %6, align 8
  %15 = load i32, ptr %7, align 4
  %16 = sext i32 %15 to i64
  %17 = getelementptr inbounds i8, ptr %14, i64 %16
  %18 = load i8, ptr %17, align 1
  call void @_ZN6casadi17SerializingStream4packEc(ptr noundef nonnull align 8 dereferenceable(73) %8, i8 noundef signext %18)
  br label %19

19:                                               ; preds = %13
  %20 = load i32, ptr %7, align 4
  %21 = add nsw i32 %20, 1
  store i32 %21, ptr %7, align 4
  br label %10, !llvm.loop !7

22:                                               ; preds = %10
  ret void
}

; Function Attrs: mustprogress nounwind uwtable
define linkonce_odr hidden noundef i64 @_ZNKSt4fposI11__mbstate_tEcvlEv(ptr noundef nonnull align 8 dereferenceable(16) %0) #5 comdat align 2 {
  %2 = alloca ptr, align 8
  store ptr %0, ptr %2, align 8
  %3 = load ptr, ptr %2, align 8
  %4 = getelementptr inbounds %"class.std::fpos", ptr %3, i32 0, i32 0
  %5 = load i64, ptr %4, align 8
  ret i64 %5
}

; Function Attrs: mustprogress uwtable
define void @_ZN6casadi17SerializingStream8decorateEc(ptr noundef nonnull align 8 dereferenceable(73) %0, i8 noundef signext %1) #4 align 2 {
  %3 = alloca ptr, align 8
  %4 = alloca i8, align 1
  store ptr %0, ptr %3, align 8
  store i8 %1, ptr %4, align 1
  %5 = load ptr, ptr %3, align 8
  %6 = getelementptr inbounds %"class.casadi::SerializingStream", ptr %5, i32 0, i32 3
  %7 = load i8, ptr %6, align 8
  %8 = trunc i8 %7 to i1
  br i1 %8, label %9, label %11

9:                                                ; preds = %2
  %10 = load i8, ptr %4, align 1
  call void @_ZN6casadi17SerializingStream4packEc(ptr noundef nonnull align 8 dereferenceable(73) %5, i8 noundef signext %10)
  br label %11

11:                                               ; preds = %9, %2
  ret void
}

; Function Attrs: mustprogress uwtable
define void @_ZN6casadi17SerializingStream4packERSi(ptr noundef nonnull align 8 dereferenceable(73) %0, ptr noundef nonnull align 8 dereferenceable(16) %1) #4 align 2 {
  %3 = alloca ptr, align 8
  %4 = alloca ptr, align 8
  %5 = alloca i64, align 8
  %6 = alloca %"class.std::fpos", align 8
  %7 = alloca [1024 x i8], align 16
  %8 = alloca i64, align 8
  %9 = alloca i64, align 8
  %10 = alloca i64, align 8
  store ptr %0, ptr %3, align 8
  store ptr %1, ptr %4, align 8
  %11 = load ptr, ptr %3, align 8
  call void @_ZN6casadi17SerializingStream8decorateEc(ptr noundef nonnull align 8 dereferenceable(73) %11, i8 noundef signext 66)
  %12 = load ptr, ptr %4, align 8
  %13 = call noundef nonnull align 8 dereferenceable(16) ptr @_ZNSi5seekgElSt12_Ios_Seekdir(ptr noundef nonnull align 8 dereferenceable(16) %12, i64 noundef 0, i32 noundef 2)
  %14 = load ptr, ptr %4, align 8
  %15 = call { i64, i64 } @_ZNSi5tellgEv(ptr noundef nonnull align 8 dereferenceable(16) %14)
  %16 = getelementptr inbounds { i64, i64 }, ptr %6, i32 0, i32 0
  %17 = extractvalue { i64, i64 } %15, 0
  store i64 %17, ptr %16, align 8
  %18 = getelementptr inbounds { i64, i64 }, ptr %6, i32 0, i32 1
  %19 = extractvalue { i64, i64 } %15, 1
  store i64 %19, ptr %18, align 8
  %20 = call noundef i64 @_ZNKSt4fposI11__mbstate_tEcvlEv(ptr noundef nonnull align 8 dereferenceable(16) %6)
  store i64 %20, ptr %5, align 8
  %21 = load ptr, ptr %4, align 8
  %22 = call noundef nonnull align 8 dereferenceable(16) ptr @_ZNSi5seekgElSt12_Ios_Seekdir(ptr noundef nonnull align 8 dereferenceable(16) %21, i64 noundef 0, i32 noundef 0)
  %23 = load i64, ptr %5, align 8
  call void @_ZN6casadi17SerializingStream4packEm(ptr noundef nonnull align 8 dereferenceable(73) %11, i64 noundef %23)
  store i64 0, ptr %8, align 8
  br label %24

24:                                               ; preds = %56, %2
  %25 = load i64, ptr %8, align 8
  %26 = load i64, ptr %5, align 8
  %27 = icmp ult i64 %25, %26
  br i1 %27, label %28, label %59

28:                                               ; preds = %24
  %29 = load ptr, ptr %4, align 8
  %30 = getelementptr inbounds [1024 x i8], ptr %7, i64 0, i64 0
  %31 = call noundef nonnull align 8 dereferenceable(16) ptr @_ZNSi4readEPcl(ptr noundef nonnull align 8 dereferenceable(16) %29, ptr noundef %30, i64 noundef 1024)
  %32 = load ptr, ptr %4, align 8
  %33 = call noundef i64 @_ZNKSi6gcountEv(ptr noundef nonnull align 8 dereferenceable(16) %32)
  store i64 %33, ptr %9, align 8
  store i64 0, ptr %10, align 8
  br label %34

34:                                               ; preds = %42, %28
  %35 = load i64, ptr %10, align 8
  %36 = load i64, ptr %9, align 8
  %37 = icmp ult i64 %35, %36
  br i1 %37, label %38, label %45

38:                                               ; preds = %34
  %39 = load i64, ptr %10, align 8
  %40 = getelementptr inbounds [1024 x i8], ptr %7, i64 0, i64 %39
  %41 = load i8, ptr %40, align 1
  call void @_ZN6casadi17SerializingStream4packEc(ptr noundef nonnull align 8 dereferenceable(73) %11, i8 noundef signext %41)
  br label %42

42:                                               ; preds = %38
  %43 = load i64, ptr %10, align 8
  %44 = add i64 %43, 1
  store i64 %44, ptr %10, align 8
  br label %34, !llvm.loop !17

45:                                               ; preds = %34
  %46 = load ptr, ptr %4, align 8
  %47 = load ptr, ptr %46, align 8
  %48 = getelementptr i8, ptr %47, i64 -24
  %49 = load i64, ptr %48, align 8
  %50 = getelementptr inbounds i8, ptr %46, i64 %49
  %51 = call noundef i32 @_ZNKSt9basic_iosIcSt11char_traitsIcEE7rdstateEv(ptr noundef nonnull align 8 dereferenceable(264) %50)
  %52 = call noundef i32 @_ZStanSt12_Ios_IostateS_(i32 noundef %51, i32 noundef 2)
  %53 = icmp ne i32 %52, 0
  br i1 %53, label %54, label %55

54:                                               ; preds = %45
  br label %59

55:                                               ; preds = %45
  br label %56

56:                                               ; preds = %55
  %57 = load i64, ptr %8, align 8
  %58 = add i64 %57, 1
  store i64 %58, ptr %8, align 8
  br label %24, !llvm.loop !18

59:                                               ; preds = %54, %24
  ret void
}