; Function Attrs: mustprogress uwtable
define void @_ZN6casadi17SerializingStream4packERSi(ptr nocapture noundef nonnull readonly align 8 dereferenceable(73) %0, ptr noundef nonnull align 8 dereferenceable(16) %1) local_unnamed_addr #3 align 2 {
  %3 = alloca i64, align 8
  %4 = alloca [1024 x i8], align 16
  %5 = getelementptr inbounds i8, ptr %0, i64 72
  %6 = load i8, ptr %5, align 8
  %7 = and i8 %6, 1
  %.not.i = icmp eq i8 %7, 0
  br i1 %.not.i, label %_ZN6casadi17SerializingStream8decorateEc.exit, label %8

8:                                                ; preds = %2
  %9 = getelementptr inbounds i8, ptr %0, i64 64
  %10 = load ptr, ptr %9, align 8
  %11 = tail call noundef nonnull align 8 dereferenceable(8) ptr @_ZNSo3putEc(ptr noundef nonnull align 8 dereferenceable(8) %10, i8 noundef signext 99)
  %12 = load ptr, ptr %9, align 8
  %13 = tail call noundef nonnull align 8 dereferenceable(8) ptr @_ZNSo3putEc(ptr noundef nonnull align 8 dereferenceable(8) %12, i8 noundef signext 101)
  br label %_ZN6casadi17SerializingStream8decorateEc.exit

_ZN6casadi17SerializingStream8decorateEc.exit:    ; preds = %2, %8
  %14 = tail call noundef nonnull align 8 dereferenceable(16) ptr @_ZNSi5seekgElSt12_Ios_Seekdir(ptr noundef nonnull align 8 dereferenceable(16) %1, i64 noundef 0, i32 noundef 2)
  %15 = tail call { i64, i64 } @_ZNSi5tellgEv(ptr noundef nonnull align 8 dereferenceable(16) %1)
  %16 = extractvalue { i64, i64 } %15, 0
  %17 = tail call noundef nonnull align 8 dereferenceable(16) ptr @_ZNSi5seekgElSt12_Ios_Seekdir(ptr noundef nonnull align 8 dereferenceable(16) %1, i64 noundef 0, i32 noundef 0)
  call void @llvm.lifetime.start.p0(i64 8, ptr nonnull %3)
  %18 = load i8, ptr %5, align 8
  %19 = and i8 %18, 1
  %.not.i.i = icmp eq i8 %19, 0
  br i1 %.not.i.i, label %_ZN6casadi17SerializingStream8decorateEc.exit.i, label %20

20:                                               ; preds = %_ZN6casadi17SerializingStream8decorateEc.exit
  %21 = getelementptr inbounds i8, ptr %0, i64 64
  %22 = load ptr, ptr %21, align 8
  %23 = tail call noundef nonnull align 8 dereferenceable(8) ptr @_ZNSo3putEc(ptr noundef nonnull align 8 dereferenceable(8) %22, i8 noundef signext 108)
  %24 = load ptr, ptr %21, align 8
  %25 = tail call noundef nonnull align 8 dereferenceable(8) ptr @_ZNSo3putEc(ptr noundef nonnull align 8 dereferenceable(8) %24, i8 noundef signext 101)
  br label %_ZN6casadi17SerializingStream8decorateEc.exit.i

_ZN6casadi17SerializingStream8decorateEc.exit.i:  ; preds = %20, %_ZN6casadi17SerializingStream8decorateEc.exit
  store i64 %16, ptr %3, align 8
  %26 = getelementptr inbounds i8, ptr %0, i64 64
  br label %27

27:                                               ; preds = %27, %_ZN6casadi17SerializingStream8decorateEc.exit.i
  %indvars.iv.i = phi i64 [ 0, %_ZN6casadi17SerializingStream8decorateEc.exit.i ], [ %indvars.iv.next.i, %27 ]
  %28 = getelementptr inbounds i8, ptr %3, i64 %indvars.iv.i
  %29 = load i8, ptr %28, align 1
  %30 = load ptr, ptr %26, align 8
  %31 = and i8 %29, 15
  %32 = add nuw nsw i8 %31, 97
  %33 = tail call noundef nonnull align 8 dereferenceable(8) ptr @_ZNSo3putEc(ptr noundef nonnull align 8 dereferenceable(8) %30, i8 noundef signext %32)
  %34 = load ptr, ptr %26, align 8
  %35 = lshr i8 %29, 4
  %narrow.i.i = add nuw nsw i8 %35, 97
  %36 = tail call noundef nonnull align 8 dereferenceable(8) ptr @_ZNSo3putEc(ptr noundef nonnull align 8 dereferenceable(8) %34, i8 noundef signext %narrow.i.i)
  %indvars.iv.next.i = add nuw nsw i64 %indvars.iv.i, 1
  %exitcond.not.i = icmp eq i64 %indvars.iv.next.i, 8
  br i1 %exitcond.not.i, label %_ZN6casadi17SerializingStream4packEm.exit, label %27, !llvm.loop !25

_ZN6casadi17SerializingStream4packEm.exit:        ; preds = %27
  call void @llvm.lifetime.end.p0(i64 8, ptr nonnull %3)
  %.not20 = icmp eq i64 %16, 0
  br i1 %.not20, label %._crit_edge18, label %.lr.ph17

.lr.ph17:                                         ; preds = %_ZN6casadi17SerializingStream4packEm.exit, %._crit_edge
  %.01416 = phi i64 [ %55, %._crit_edge ], [ 0, %_ZN6casadi17SerializingStream4packEm.exit ]
  %37 = call noundef nonnull align 8 dereferenceable(16) ptr @_ZNSi4readEPcl(ptr noundef nonnull align 8 dereferenceable(16) %1, ptr noundef nonnull %4, i64 noundef 1024)
  %38 = call noundef i64 @_ZNKSi6gcountEv(ptr noundef nonnull align 8 dereferenceable(16) %1)
  %.not21 = icmp eq i64 %38, 0
  br i1 %.not21, label %._crit_edge, label %.lr.ph

.lr.ph:                                           ; preds = %.lr.ph17, %.lr.ph
  %.015 = phi i64 [ %48, %.lr.ph ], [ 0, %.lr.ph17 ]
  %39 = getelementptr inbounds [1024 x i8], ptr %4, i64 0, i64 %.015
  %40 = load i8, ptr %39, align 1
  %41 = load ptr, ptr %26, align 8
  %42 = and i8 %40, 15
  %43 = add nuw nsw i8 %42, 97
  %44 = call noundef nonnull align 8 dereferenceable(8) ptr @_ZNSo3putEc(ptr noundef nonnull align 8 dereferenceable(8) %41, i8 noundef signext %43)
  %45 = load ptr, ptr %26, align 8
  %46 = lshr i8 %40, 4
  %narrow.i = add nuw nsw i8 %46, 97
  %47 = call noundef nonnull align 8 dereferenceable(8) ptr @_ZNSo3putEc(ptr noundef nonnull align 8 dereferenceable(8) %45, i8 noundef signext %narrow.i)
  %48 = add nuw i64 %.015, 1
  %exitcond.not = icmp eq i64 %48, %38
  br i1 %exitcond.not, label %._crit_edge, label %.lr.ph, !llvm.loop !58

._crit_edge:                                      ; preds = %.lr.ph, %.lr.ph17
  %49 = load ptr, ptr %1, align 8
  %50 = getelementptr i8, ptr %49, i64 -24
  %51 = load i64, ptr %50, align 8
  %52 = getelementptr inbounds i8, ptr %1, i64 %51
  %53 = call noundef i32 @_ZNKSt9basic_iosIcSt11char_traitsIcEE7rdstateEv(ptr noundef nonnull align 8 dereferenceable(264) %52)
  %54 = and i32 %53, 2
  %.not = icmp ne i32 %54, 0
  %55 = add nuw i64 %.01416, 1
  %exitcond22.not = icmp eq i64 %55, %16
  %or.cond = select i1 %.not, i1 true, i1 %exitcond22.not
  br i1 %or.cond, label %._crit_edge18, label %.lr.ph17, !llvm.loop !59

._crit_edge18:                                    ; preds = %._crit_edge, %_ZN6casadi17SerializingStream4packEm.exit
  ret void
}